target datalayout = "e-m:e-p270:32:32-p271:32:32-p272:64:64-i64:64-i128:128-f80:128-n8:16:32:64-S128"
target triple = "x86_64-pc-linux-gnu"

%struct.client_response = type { ptr }

@plugin_type = external constant [0 x i8], align 1
@.str.52 = private unnamed_addr constant [33 x i8] c"%s: %s: mpi/pmi2: in _handle_put\00", align 1
@__func__._handle_put = private unnamed_addr constant [12 x i8] c"_handle_put\00", align 1
@.str.53 = private unnamed_addr constant [8 x i8] c"kvsname\00", align 1
@.str.54 = private unnamed_addr constant [4 x i8] c"key\00", align 1
@.str.55 = private unnamed_addr constant [6 x i8] c"value\00", align 1
@.str.56 = private unnamed_addr constant [22 x i8] c"cmd=put_result rc=%d\0A\00", align 1
@.str.57 = private unnamed_addr constant [34 x i8] c"%s: %s: mpi/pmi2: out _handle_put\00", align 1

; Function Attrs: nounwind uwtable
define internal i32 @_handle_put(i32 noundef %0, i32 noundef %1, ptr noundef %2) #0 {
  %4 = alloca i32, align 4
  %5 = alloca i32, align 4
  %6 = alloca ptr, align 8
  %7 = alloca i32, align 4
  %8 = alloca ptr, align 8
  %9 = alloca ptr, align 8
  %10 = alloca ptr, align 8
  %11 = alloca ptr, align 8
  store i32 %0, ptr %4, align 4
  store i32 %1, ptr %5, align 4
  store ptr %2, ptr %6, align 8
  call void @llvm.lifetime.start.p0(i64 4, ptr %7) #6
  store i32 0, ptr %7, align 4
  call void @llvm.lifetime.start.p0(i64 8, ptr %8) #6
  call void @llvm.lifetime.start.p0(i64 8, ptr %9) #6
  store ptr null, ptr %9, align 8
  call void @llvm.lifetime.start.p0(i64 8, ptr %10) #6
  store ptr null, ptr %10, align 8
  call void @llvm.lifetime.start.p0(i64 8, ptr %11) #6
  store ptr null, ptr %11, align 8
  br label %12

12:                                               ; preds = %3
  br label %13

13:                                               ; preds = %12
  %14 = call i32 @slurm_get_log_level()
  %15 = icmp sge i32 %14, 7
  br i1 %15, label %16, label %17

16:                                               ; preds = %13
  call void (i32, ptr, ...) @slurm_log_var(i32 noundef 7, ptr noundef @.str.52, ptr noundef @plugin_type, ptr noundef @__func__._handle_put)
  br label %17

17:                                               ; preds = %16, %13
  br label %18

18:                                               ; preds = %17
  br label %19

19:                                               ; preds = %18
  br label %20

20:                                               ; preds = %19
  br label %21

21:                                               ; preds = %20
  %22 = load ptr, ptr %6, align 8
  %23 = call i32 @client_req_parse_body(ptr noundef %22)
  %24 = load ptr, ptr %6, align 8
  %25 = call zeroext i1 @client_req_get_str(ptr noundef %24, ptr noundef @.str.53, ptr noundef %9)
  %26 = load ptr, ptr %6, align 8
  %27 = call zeroext i1 @client_req_get_str(ptr noundef %26, ptr noundef @.str.54, ptr noundef %10)
  %28 = load ptr, ptr %6, align 8
  %29 = call zeroext i1 @client_req_get_str(ptr noundef %28, ptr noundef @.str.55, ptr noundef %11)
  call void @slurm_xfree(ptr noundef %9)
  %30 = load ptr, ptr %10, align 8
  %31 = load ptr, ptr %11, align 8
  %32 = call i32 @temp_kvs_add(ptr noundef %30, ptr noundef %31)
  store i32 %32, ptr %7, align 4
  call void @slurm_xfree(ptr noundef %10)
  call void @slurm_xfree(ptr noundef %11)
  %33 = load i32, ptr %7, align 4
  %34 = icmp eq i32 %33, 0
  br i1 %34, label %35, label %36

35:                                               ; preds = %21
  store i32 0, ptr %7, align 4
  br label %37

36:                                               ; preds = %21
  store i32 1, ptr %7, align 4
  br label %37

37:                                               ; preds = %36, %35
  %38 = call ptr @client_resp_new()
  store ptr %38, ptr %8, align 8
  br label %39

39:                                               ; preds = %37
  %40 = load ptr, ptr %8, align 8
  %41 = getelementptr inbounds nuw %struct.client_response, ptr %40, i32 0, i32 0
  %42 = load i32, ptr %7, align 4
  call void (ptr, ptr, ...) @slurm_xstrfmtcat(ptr noundef %41, ptr noundef @.str.56, i32 noundef %42)
  br label %43

43:                                               ; preds = %39
  br label %44

44:                                               ; preds = %43
  %45 = load ptr, ptr %8, align 8
  %46 = load i32, ptr %4, align 4
  %47 = call i32 @client_resp_send(ptr noundef %45, i32 noundef %46)
  store i32 %47, ptr %7, align 4
  %48 = load ptr, ptr %8, align 8
  call void @client_resp_free(ptr noundef %48)
  br label %49

49:                                               ; preds = %44
  br label %50

50:                                               ; preds = %49
  %51 = call i32 @slurm_get_log_level()
  %52 = icmp sge i32 %51, 7
  br i1 %52, label %53, label %54

53:                                               ; preds = %50
  call void (i32, ptr, ...) @slurm_log_var(i32 noundef 7, ptr noundef @.str.57, ptr noundef @plugin_type, ptr noundef @__func__._handle_put)
  br label %54

54:                                               ; preds = %53, %50
  br label %55

55:                                               ; preds = %54
  br label %56

56:                                               ; preds = %55
  br label %57

57:                                               ; preds = %56
  br label %58

58:                                               ; preds = %57
  %59 = load i32, ptr %7, align 4
  call void @llvm.lifetime.end.p0(i64 8, ptr %11) #6
  call void @llvm.lifetime.end.p0(i64 8, ptr %10) #6
  call void @llvm.lifetime.end.p0(i64 8, ptr %9) #6
  call void @llvm.lifetime.end.p0(i64 8, ptr %8) #6
  call void @llvm.lifetime.end.p0(i64 4, ptr %7) #6
  ret i32 %59
}