; Function Attrs: nounwind uwtable
define internal i32 @_handle_put(i32 noundef %0, i32 %1, ptr noundef %2) #0 {
  %4 = alloca ptr, align 8
  %5 = alloca ptr, align 8
  %6 = alloca ptr, align 8
  call void @llvm.lifetime.start.p0(i64 8, ptr nonnull %4) #8
  store ptr null, ptr %4, align 8
  call void @llvm.lifetime.start.p0(i64 8, ptr nonnull %5) #8
  store ptr null, ptr %5, align 8
  call void @llvm.lifetime.start.p0(i64 8, ptr nonnull %6) #8
  store ptr null, ptr %6, align 8
  %7 = tail call i32 @slurm_get_log_level() #8
  %8 = icmp sgt i32 %7, 6
  br i1 %8, label %9, label %10

9:                                                ; preds = %3
  tail call void (i32, ptr, ...) @slurm_log_var(i32 noundef 7, ptr noundef nonnull @.str.52, ptr noundef nonnull @plugin_type, ptr noundef nonnull @__func__._handle_put) #8
  br label %10

10:                                               ; preds = %9, %3
  %11 = tail call i32 @client_req_parse_body(ptr noundef %2) #8
  %12 = call zeroext i1 @client_req_get_str(ptr noundef %2, ptr noundef nonnull @.str.53, ptr noundef nonnull %4) #8
  %13 = call zeroext i1 @client_req_get_str(ptr noundef %2, ptr noundef nonnull @.str.54, ptr noundef nonnull %5) #8
  %14 = call zeroext i1 @client_req_get_str(ptr noundef %2, ptr noundef nonnull @.str.55, ptr noundef nonnull %6) #8
  call void @slurm_xfree(ptr noundef nonnull %4) #8
  %15 = load ptr, ptr %5, align 8
  %16 = load ptr, ptr %6, align 8
  %17 = call i32 @temp_kvs_add(ptr noundef %15, ptr noundef %16) #8
  call void @slurm_xfree(ptr noundef nonnull %5) #8
  call void @slurm_xfree(ptr noundef nonnull %6) #8
  %18 = icmp ne i32 %17, 0
  %. = zext i1 %18 to i32
  %19 = call ptr @client_resp_new() #8
  call void (ptr, ptr, ...) @slurm_xstrfmtcat(ptr noundef %19, ptr noundef nonnull @.str.56, i32 noundef %.) #8
  %20 = call i32 @client_resp_send(ptr noundef %19, i32 noundef %0) #8
  call void @client_resp_free(ptr noundef %19) #8
  %21 = call i32 @slurm_get_log_level() #8
  %22 = icmp sgt i32 %21, 6
  br i1 %22, label %23, label %24

23:                                               ; preds = %10
  call void (i32, ptr, ...) @slurm_log_var(i32 noundef 7, ptr noundef nonnull @.str.57, ptr noundef nonnull @plugin_type, ptr noundef nonnull @__func__._handle_put) #8
  br label %24

24:                                               ; preds = %23, %10
  call void @llvm.lifetime.end.p0(i64 8, ptr nonnull %6) #8
  call void @llvm.lifetime.end.p0(i64 8, ptr nonnull %5) #8
  call void @llvm.lifetime.end.p0(i64 8, ptr nonnull %4) #8
  ret i32 %20
}